(dp0
(S'391112'
p1
Vs
p2
V4bb0e337f964a520e7663ce3
p3
tp4
S'0'
p5
s(g1
Vjeera
p6
V4fb5d360e4b06101e9ee6dba
p7
tp8
g5
s(g1
Vplace
p9
V4ce73ff9fe90a35d64563b0e
p10
tp11
S'9'
p12
s(g1
Vpicking
p13
V4c63ae887c9def3b5af6e31c
p14
tp15
g5
s(g1
Vshoppers
p16
V4b68f120f964a5201b942be3
p17
tp18
g5
s(g1
Vpizza
p19
V4e59a2f7d22dfba6f477bac8
p20
tp21
g5
s(S'151030'
p22
Vplate
p23
V51614abde4b04a48c4fcfdab
p24
tp25
g5
s(g22
Vhelpers
p26
V4c08c84d1244b713bc12a872
p27
tp28
g5
s(S'132750'
p29
Vloads
p30
V4f3e60f4e4b02744e49e363f
p31
tp32
g5
s(g22
Vservice
p33
V5198e819498e9c6402d05df3
p34
tp35
g5
s(g1
Vgadgets
p36
V525551ad11d237ab4bea0880
p37
tp38
S'2'
p39
s(g1
Vbase
p40
V4d7115aa419da35d99400fd8
p41
tp42
g5
s(g22
Vfloor
p43
V4ee1ae27469093b95837c161
p44
tp45
g5
s(g22
g9
V51e0b9ef498e10d8765276ce
p46
tp47
g5
s(g29
Vdelhi
p48
V4be1816b0365c9b6e4d7b338
p49
tp50
g5
s(g1
Vversion
p51
V4b908e16f964a520cd8f33e3
p52
tp53
S'6'
p54
s(g1
Vaccessories
p55
g37
tp56
g39
s(g22
Vpravin
p57
g44
tp58
g5
s(g1
Vtiffin
p59
g14
tp60
g5
s(g1
Vbutton
p61
g7
tp62
g5
s(g29
Vpakodas
p63
V4b6590d0f964a520a5f42ae3
p64
tp65
g5
s(g22
Vstarters
p66
V51232f65e4b0c41b086a1325
p67
tp68
g5
s(g29
Vshrikhand
p69
V4b6d3cd5f964a520f96c2ce3
p70
tp71
g5
s(g1
Vlayout
p72
g37
tp73
g12
s(g29
Vchili
p74
g64
tp75
g5
s(g29
Vchaach
p76
V4b6d30b3f964a520b56a2ce3
p77
tp78
g5
s(g1
Vtouch
p79
V4bd5496f6798ef3b2f29638d
p80
tp81
g5
s(g1
g48
g52
tp82
g54
s(g1
Vdal
p83
g7
tp84
g5
s(g29
Vfood
p85
V5328a145498e9fcd14a06a91
p86
tp87
S'-3'
p88
s(g29
g2
V4b6d3245f964a520076b2ce3
p89
tp90
S'3'
p91
s(g22
Vrurals
p92
V50365740e4b0179adca24a43
p93
tp94
S'-2'
p95
s(g1
Vwheat
p96
g41
tp97
g5
s(g1
Vbharti
p98
g80
tp99
g5
s(g1
Vpappu
p100
g7
tp101
g5
s(g22
g85
g93
tp102
g95
s(g22
Vboard
p103
V4ec0c27d61af06192bae2ece
p104
tp105
g5
s(g1
Vwood
p106
g3
tp107
g5
s(g29
Vmomo
p108
g89
tp109
g91
s(g29
Vcorner
p110
V4c3b289c0cabef3b3285b94b
p111
tp112
S'1'
p113
s(g29
Vcake
p114
V4b8a8aa8f964a520657132e3
p115
tp116
g5
s(g22
Vdiscounts
p117
V5198dd2a498ec0cf569ba28f
p118
tp119
g5
s(g29
g2
g64
tp120
g5
s(g29
Vmorning
p121
V4b7561f5f964a52065092ee3
p122
tp123
g5
s(g22
g33
V4e7c3c8ab803b97a5ccd9619
p124
tp125
g91
s(g22
Vkhadoos
p126
g44
tp127
g5
s(g1
Vchandni
p128
g14
tp129
g5
s(g29
g108
V4b58583bf964a520a85328e3
p130
tp131
g5
s(g22
Vwater
p132
g46
tp133
g5
s(g22
Vbathroom
p134
g46
tp135
g5
s(g22
Vlots
p136
V502682fde4b0d91465253835
p137
tp138
g5
s(g29
Vhome
p139
V4c6d5c50a437224bd6c82cb1
p140
tp141
g113
s(g29
Vlane
p142
g49
tp143
g5
s(g1
Vmoment
p144
g80
tp145
g5
s(g29
Vfillet
p146
V4bdb445ec712b71317a063b4
p147
tp148
g5
s(g29
Vgol
p149
V4b66dbd4f964a520ab2d2be3
p150
tp151
g5
s(g29
Vhalf
p152
g122
tp153
g5
s(g29
Vbread
p154
g64
tp155
g5
s(g29
Vmusic
p156
V5259cbb911d205d45737db44
p157
tp158
g5
s(g1
Vstaff
p159
g37
tp160
S'7'
p161
s(g1
Voven
p162
g3
tp163
g5
s(g1
Vnd
p164
V4b67c5a6f964a5204f5d2be3
p165
tp166
g5
s(g22
Vbuses
p167
V4f7486ece4b006a67dee9a34
p168
tp169
g5
s(g22
Vroom
p170
g46
tp171
g5
s(g1
Vbit
p172
V4ade0c9af964a520096821e3
p173
tp174
g5
s(g1
g43
g165
tp175
g5
s(g29
Vturn
p176
g49
tp177
g5
s(g1
Vrd
p178
g165
tp179
g5
s(g29
Vparantha
p180
g31
tp181
g5
s(g1
Vshipping
p182
g165
tp183
g5
s(g29
Vu
p184
g49
tp185
g5
s(g29
Vmeghalaya
p186
g130
tp187
g5
s(g22
g9
V51e2b4cc498e834f5a44b5cd
p188
tp189
g5
s(g1
Vindians
p190
g7
tp191
g5
s(g22
Vcoffee
p192
V4db3a88643a1369cb5a9d259
p193
tp194
g5
s(g22
Vlasagna
p195
V4c1398787f7f2d7ff645df68
p196
tp197
g5
s(g29
Vlunch
p198
V4b763566f964a52045432ee3
p199
tp200
g5
s(g1
Vparatha
p201
g10
tp202
g54
s(g22
Vloo
p203
g44
tp204
g5
s(g22
Videa
p205
g93
tp206
g95
s(g1
Vhotel
p207
g173
tp208
g5
s(g22
Vegg
p209
V4fb78467e4b05e956e1efd21
p210
tp211
g5
s(g1
g209
V4c81266451ada1cd2bee0f10
p212
tp213
g5
s(g29
Vsummer
p214
g122
tp215
g5
s(g22
Vwaiters
p216
g93
tp217
g5
s(g22
Vselection
p218
g118
tp219
g5
s(g29
Vwinter
p220
g122
tp221
g5
s(g1
Vswagath
p222
V4d73a6b9311f6ea8810eecea
p223
tp224
g5
s(g22
Vbiryani
p225
g104
tp226
g5
s(g22
Vtree
p227
g193
tp228
g5
s(g1
Vandroid
p229
g37
tp230
g113
s(g29
Vpaneer
p231
g64
tp232
g5
s(g22
g192
g124
tp233
g5
s(g1
Vsouth
p234
g52
tp235
g91
s(g1
Vfav
p236
g212
tp237
g5
s(g1
Vshower
p238
g173
tp239
g5
s(g29
Vestablishment
p240
g86
tp241
g95
s(g1
Vpizzas
p242
g41
tp243
g39
s(g22
Voptions
p244
g124
tp245
g5
s(g29
Vkamal
p246
g89
tp247
g5
s(g29
Vear
p248
g86
tp249
S'-1'
p250
s(g1
Vtomato
p251
g7
tp252
g5
s(g1
Vfavorite
p253
V4cc2a99ed43ba143f2405af8
p254
tp255
g5
s(g29
Vcase
p256
g86
tp257
g88
s(g29
Vperson
p258
V4de0e62222713271e2bed126
p259
tp260
g5
s(g1
Vveggies
p261
V4fc851eae4b04ec64adbd0b0
p262
tp263
g5
s(g22
Vdays
p264
V4c9773a282b56dcbd2d0e9aa
p265
tp266
g5
s(g29
Vhour
p267
g122
tp268
g5
s(g22
Vcocktails
p269
g93
tp270
g95
s(g29
Vtimings
p271
V4c1c5658fcf8c9b67005aa0b
p272
tp273
g5
s(g22
g139
g44
tp274
g5
s(g22
g2
V52172ae611d23f51777fb001
p275
tp276
g5
s(g29
Vflies
p277
g31
tp278
g5
s(g29
Vchicken
p279
g130
tp280
g5
s(g29
Vpm
p281
V4c3b2f2cd94dc9b6725affe7
p282
tp283
g5
s(g1
Vherbs
p284
g20
tp285
g5
s(g1
Vman
p286
g17
tp287
g5
s(g29
g9
g111
tp288
g5
s(g22
Vtamil
p289
g93
tp290
g95
s(g29
g279
g111
tp291
g5
s(g1
Valoo
p292
g7
tp293
g5
s(g1
Vtandoori
p294
g10
tp295
g91
s(g29
Vhindi
p296
V4b5ea887f964a5202f9529e3
p297
tp298
g5
s(g29
Vbill
p299
V4cee14595de16ea85f11ba96
p300
tp301
g5
s(g1
g85
g223
tp302
g91
s(g29
g2
g130
tp303
g5
s(g1
Vroast
p304
g7
tp305
g5
s(g22
Voffer
p306
g275
tp307
g5
s(g1
Vdishes
p308
V4bacde46f964a520cc133be3
p309
tp310
g91
s(g22
g33
V5353524811d2b89866b37e84
p311
tp312
S'4'
p313
s(g29
Vrasgulla
p314
V4b66e1a9f964a520942e2be3
p315
tp316
g5
s(g22
Vdeal
p317
g67
tp318
g91
s(g22
g308
g67
tp319
g5
s(g1
Vcom
p320
V4b9886fff964a520db4535e3
p321
tp322
g5
s(g29
Vsamosa
p323
g64
tp324
g5
s(g29
Vmon
p325
g297
tp326
g5
s(g22
Vclose
p327
g137
tp328
g5
s(g29
Vp
p329
g297
tp330
g5
s(g1
g136
g37
tp331
g5
s(g22
Vvrl
p332
g168
tp333
g5
s(g29
Vsauce
p334
g89
tp335
g91
s(g1
Vwomen
p336
g165
tp337
g5
s(g1
Vem
p338
g41
tp339
g39
s(g1
Vnizams
p340
g212
tp341
g5
s(g1
g9
V49ee31e5f964a52038681fe3
p342
tp343
g5
s(g1
Vchaats
p344
V5034ea8be4b0796bb6a0f8e2
p345
tp346
g5
s(g1
Vsandwich
p347
g262
tp348
g5
s(g1
Vsalad
p349
g262
tp350
g5
s(g29
Vtaste
p351
V4e14b42dfa7622d439ecca64
p352
tp353
g5
s(g22
Vzinger
p354
g275
tp355
g5
s(g29
Vdiscount
p356
g300
tp357
g5
s(g29
g2
g150
tp358
g5
s(g29
Vparking
p359
V4bff5c3c8f76b7138ff41fd5
p360
tp361
g5
s(g1
Vtime
p362
g212
tp363
g5
s(g1
Vtomorrow
p364
g80
tp365
g5
s(g29
g271
g199
tp366
g5
s(g22
Vcrowd
p367
g137
tp368
g5
s(g22
Vwait
p369
g265
tp370
g5
s(g22
Vchats
p371
g24
tp372
g5
s(g29
Vhighway
p373
g49
tp374
g5
s(g22
Vsoups
p375
g265
tp376
g5
s(g1
g19
g3
tp377
g5
s(g22
Vgoa
p378
g168
tp379
g5
s(g22
Vyum
p380
V4f216c14e4b0c59298144f86
p381
tp382
g5
s(g29
Vmoney
p383
g300
tp384
g5
s(g29
Vowner
p385
g86
tp386
g250
s(g22
g139
V50e2bba6e4b0e421fb3fd2bf
p387
tp388
g5
s(g22
Vcosmopolitan
p389
V4c87ae77b504a1434e7bb81c
p390
tp391
g5
s(g29
Vsoda
p392
g70
tp393
g5
s(g22
Vrolls
p394
V4d5b0a1d338e548130cce38d
p395
tp396
g5
s(g1
Vricky
p397
g342
tp398
g5
s(g29
Vkokam
p399
g70
tp400
g5
s(g29
g2
g315
tp401
g5
s(g1
g85
g52
tp402
g54
s(g29
Vspicy
p403
g352
tp404
g5
s(g1
Vurlai
p405
g7
tp406
g5
s(g29
Vmutton
p407
g111
tp408
g5
s(g29
g356
V513b99f7e4b0a1e30d01214c
p409
tp410
g5
s(g1
Vpeople
p411
g321
tp412
g5
s(g1
Vtour
p413
g14
tp414
g5
s(g22
Vbunch
p415
g93
tp416
g250
s(g22
g362
g137
tp417
g5
s(g1
Vmultigrain
p418
g41
tp419
g5
s(g29
Vorder
p420
g140
tp421
g39
s(g1
Vsteroids
p422
g7
tp423
g5
s(g22
Vloan
p424
g387
tp425
g5
s(g29
g85
g352
tp426
g5
s(g22
g279
g104
tp427
g5
s(g29
Vgappa
p428
g150
tp429
g5
s(g22
Vquantity
p430
g137
tp431
g5
s(g1
Vspice
p432
g14
tp433
g5
s(g29
Vlanes
p434
g49
tp435
g5
s(g1
Vmenu
p436
g14
tp437
g5
s(g1
Vroll
p438
g212
tp439
g5
s(g22
Vside
p440
g67
tp441
g5
s(g1
Vwww
p442
g321
tp443
g5
s(g22
Vaaloo
p444
g381
tp445
g5
s(g29
Vvada
p446
g70
tp447
g5
s(g29
Vsemi
p448
g111
tp449
g113
s(g1
g85
g165
tp450
g5
s(g1
g9
g223
tp451
g5
s(g1
Vdakshin
p452
g223
tp453
g5
s(g22
Vrestaurant
p454
g311
tp455
g39
s(g22
Vtable
p456
g265
tp457
g5
s(g22
Vmanager
p458
g44
tp459
g5
s(g1
Vfoo
p460
g254
tp461
g5
s(g22
Vsection
p462
g44
tp463
g5
s(g1
Vveg
p464
g262
tp465
g5
s(g22
Vmeal
p466
g67
tp467
g5
s(g22
Vpool
p468
V4b07aa7bf964a52055ff22e3
p469
tp470
g5
s(g22
g464
g104
tp471
g5
s(g1
Vworld
p472
g321
tp473
g5
s(g29
Vsun
p474
g297
tp475
g5
s(g1
Vtourists
p476
g14
tp477
g5
s(g1
Velectronics
p478
g165
tp479
g5
s(g22
Vrice
p480
V4e231688ae6015b212b6739a
p481
tp482
g5
s(g22
g66
g265
tp483
g5
s(g1
Vdrink
p484
g342
tp485
g5
s(g22
Vday
p486
g46
tp487
g5
s(g22
Vbucks
p488
g193
tp489
g39
s(g29
g279
g89
tp490
g91
s(g29
Vevening
p491
g122
tp492
g5
s(g29
g491
g111
tp493
g113
s(g22
Vbuns
p494
g381
tp495
g5
s(g22
g464
g67
tp496
g5
s(g1
Vappams
p497
g223
tp498
g5
s(g1
Vpotato
p499
g212
tp500
g5
s(g29
Vdelivery
p501
g140
tp502
g39
s(g22
Vpalya
p503
g381
tp504
g5
s(g29
Vseason
p505
g77
tp506
g5
s(g1
g499
g7
tp507
g5
s(g29
Vatm
p508
V4b9c7142f964a520f66836e3
p509
tp510
g5
s(g1
g33
V4f26411ce4b08842e5d9fd26
p511
tp512
g5
s(g29
Vm
p513
g297
tp514
g5
s(g1
g9
g321
tp515
g5
s(g29
Vbank
p516
g509
tp517
g5
s(g22
Vmins
p518
g265
tp519
g5
s(g22
Vbangalore
p520
g168
tp521
g5
s(g22
g362
g265
tp522
g5
s(g29
Vkebab
p523
g111
tp524
g113
s(g1
Vmall
p525
g17
tp526
g5
s(g1
Vchat
p527
g345
tp528
g5
s(g29
Vairtel
p529
g300
tp530
g5
s(g22
g205
g196
tp531
g5
s(g29
Vbirthday
p532
g115
tp533
g5
s(g22
Vpitstop
p534
g168
tp535
g5
s(g1
Voperations
p536
g173
tp537
g5
s(g29
g172
g360
tp538
g5
s(g22
g424
g44
tp539
g5
s(g29
Vpao
p540
g70
tp541
g5
s(g29
Vfruit
p542
g115
tp543
g5
s(g29
g33
g89
tp544
g91
s(g29
g246
g130
tp545
g5
s(g29
Vsteak
p546
g147
tp547
g5
s(g22
Vpuffs
p548
g210
tp549
g5
s(g22
Vservicemen
p550
g137
tp551
g5
s.